ccopy_reg
_reconstructor
p0
(csklearn.feature_extraction.text
TfidfVectorizer
p1
c__builtin__
object
p2
Ntp3
Rp4
(dp5
S'decode_error'
p6
Vstrict
p7
sS'vocabulary'
p8
NsS'encoding'
p9
Vutf-8
p10
sS'token_pattern'
p11
V(?u)\u005cb\u005cw\u005cw+\u005cb
p12
sS'analyzer'
p13
Vword
p14
sS'ngram_range'
p15
(I1
I1
tp16
sS'preprocessor'
p17
NsS'max_df'
p18
F1.0
sS'min_df'
p19
I5
sS'max_features'
p20
NsS'fixed_vocabulary_'
p21
I00
sS'stop_words_'
p22
c__builtin__
set
p23
((lp24
Vtodays
p25
aVchild
p26
aVdynasty
p27
aVfour
p28
aVhating
p29
aV6pm
p30
aVhate
p31
aVaua
p32
aVvoter
p33
aVcryptoinvestor
p34
aVvoted
p35
aVunder
p36
aVrecycle
p37
aVworth
p38
aVrescue
p39
aVdutch
p40
aVevery
p41
aVbroward
p42
aVwick
p43
aVtineke
p44
aVeileen
p45
aVsummited
p46
aVkratos
p47
aVleaders
p48
aVdirect
p49
aVbudget
p50
aVchef
p51
aVpitchfork
p52
aVeven
p53
aVbrexit
p54
aVcooking
p55
aVlights
p56
aVdesigning
p57
aVincreasing
p58
aVtextures
p59
aVspecialist
p60
aVnever
p61
aVhundreds
p62
aVreported
p63
aVactive
p64
aV100
p65
aVfinders
p66
aVobtained
p67
aVkids
p68
aVdaughter
p69
aVjinmo
p70
aVguide
p71
aVmentor
p72
aVmilitary
p73
aVjoshua
p74
aVgolden
p75
aVjulia
p76
aVcounty
p77
aVtotal
p78
aVunit
p79
aVsarah
p80
aVwould
p81
aVleaks
p82
aVmusic
p83
aVtell
p84
aVmusk
p85
aVbrings
p86
aVunderwear
p87
aVaward
p88
aVmladen
p89
aVadult
p90
aVboomer
p91
aV95
p92
aVroom
p93
aVrights
p94
aVpursue
p95
aVwork
p96
aVadvocacy
p97
aVmeadows
p98
aVera
p99
aVjamal
p100
aVbarbers
p101
aVgive
p102
aVindie
p103
aVhoney
p104
aVdavid
p105
aVrecovery
p106
aVprovide
p107
aVtravel
p108
aVfeature
p109
aVwriters
p110
aVbeach
p111
aVgaming
p112
aVaskscience
p113
aVafter
p114
aVpresident
p115
aVconstants
p116
aVeffective
p117
aVfictional
p118
aVnewshour
p119
aVronimo
p120
aVorder
p121
aVlindsay
p122
aVoperations
p123
aVoffice
p124
aVdeck
p125
aVwelcomed
p126
aVlondon
p127
aVthesis
p128
aVticket
p129
aVbefore
p130
aVpersonal
p131
aVfix
p132
aVqldb
p133
aVwriting
p134
aVdamascus
p135
aVweeks
p136
aVschmidt
p137
aVovercome
p138
aVthem
p139
aVthrones
p140
aVschools
p141
aVtourism
p142
aValex
p143
aVdebut
p144
aVslavery
p145
aValexis
p146
aVaddicted
p147
aVmeal
p148
aVmean
p149
aVfinancial
p150
aVseries
p151
aVdiane
p152
aVcelebrating
p153
aVmilan
p154
aVtrading
p155
aVnavy
p156
aVgod
p157
aVre
p158
aVfundrising
p159
aVmedicine
p160
aVgot
p161
aVnewly
p162
aVmillions
p163
aVogrady
p164
aVfoundation
p165
aVtelecommunication
p166
aVfree
p167
aVsoundfall
p168
aVmastering
p169
aVcertified
p170
aVcookbooks
p171
aVcreated
p172
aV000
p173
aVcorrections
p174
aVisa
p175
aVenjoy
p176
aVfeatures
p177
aVresearcher
p178
aVrestrict
p179
aVfantasy
p180
aVfeatured
p181
aVanother
p182
aVseizures
p183
aVtheir
p184
aVtop
p185
aVengagement
p186
aVbitcoin
p187
aVfiction
p188
aVmaster
p189
aVholywhitemountain
p190
aVjohn
p191
aV40th
p192
aVlisten
p193
aVmurder
p194
aVtool
p195
aVtook
p196
aVwestern
p197
aVpalsy
p198
aVhazelnut
p199
aVdistance
p200
aVforensic
p201
aVproject
p202
aVwilliams
p203
aVfeeling
p204
aVpollination
p205
aVmodern
p206
aVtalking
p207
aVpranked
p208
aVforces
p209
aVeducator
p210
aVokii
p211
aVsoaker
p212
aVwhat
p213
aVgallagher
p214
aVsecession
p215
aVfagan
p216
aVdon
p217
aVprofessor
p218
aVflow
p219
aVmayfield
p220
aVyang
p221
aVtech
p222
aVvoting
p223
aVcame
p224
aVreserve
p225
aVending
p226
aVcolors
p227
aVradio
p228
aVsolutions
p229
aVearth
p230
aVmosely
p231
aVlessons
p232
aVherbivore
p233
aVtheme
p234
aVrick
p235
aVfolks
p236
aVboyfriend
p237
aVwearing
p238
aVmonica
p239
aVdj
p240
aVasians
p241
aVwide
p242
aVde
p243
aVwatch
p244
aVvalente
p245
aVplatt
p246
aVamazon
p247
aVchristopher
p248
aVmidterms
p249
aVbar
p250
aVsteam
p251
aVrespond
p252
aVmotherboard
p253
aVcarolyn
p254
aVfail
p255
aVbest
p256
aVlots
p257
aVaway
p258
aVcosplayers
p259
aVmen
p260
aVnature
p261
aVphysicist
p262
aVsoutheast
p263
aVwtf
p264
aVkitchen
p265
aVreceived
p266
aVclimate
p267
aVcow
p268
aVcox
p269
aVagainst
p270
aVgames
p271
aVsimilarities
p272
aVrequests
p273
aVcom
p274
aVasked
p275
aVcharacter
p276
aV2nd
p277
aVpregnancy
p278
aVtrust
p279
aVroofer
p280
aVputs
p281
aVthree
p282
aVtiny
p283
aVbasic
p284
aVdozens
p285
aVtopics
p286
aVwebsite
p287
aVdigits
p288
aVlife
p289
aVhospitalized
p290
aVxxx
p291
aVexcite
p292
aVfilmmaker
p293
aVdave
p294
aVoppenheim
p295
aVpersonally
p296
aVworked
p297
aVsovell
p298
aVphysician
p299
aVpublicly
p300
aVvoice
p301
aVflooding
p302
aVburied
p303
aVmexico
p304
aVdumped
p305
aVnutter
p306
aVii
p307
aVplayer
p308
aVelicit
p309
aVexperts
p310
aV20k
p311
aV80k
p312
aVthings
p313
aVmake
p314
aVaclu
p315
aV80s
p316
aVindependent
p317
aVnih
p318
aVsocial
p319
aVdelight
p320
aVkim
p321
aVkid
p322
aVprograms
p323
aVgreatest
p324
aVdetained
p325
aVclaims
p326
aValabama
p327
aV800
p328
aV33
p329
aVleft
p330
aVsleeps
p331
aVnonmosaic
p332
aVmeta
p333
aVhuman
p334
aVschikora
p335
aVrepost
p336
aVbroncos
p337
aVphotographer
p338
aVjosh
p339
aVboard
p340
aVprison
p341
aVsave
p342
aVplasma
p343
aVthx
p344
aV3pm
p345
aVbirth
p346
aVunique
p347
aVsequeida
p348
aVadvanced
p349
aVdignity
p350
aVgift
p351
aVsecurity
p352
aVwww
p353
aVgreenland
p354
aVpetting
p355
aVcybersecurity
p356
aVdeaf
p357
aVelderly
p358
aVelection
p359
aVlions
p360
aVharassment
p361
aVcooper
p362
aVice
p363
aVeverything
p364
aVcorn
p365
aVgramling
p366
aVpost
p367
aVsuper
p368
aVdollars
p369
aVbeta
p370
aVmagazine
p371
aVanime
p372
aVfranceschi
p373
aVnixon
p374
aVdonates
p375
aVpopsugar
p376
aVtwo
p377
aVentrepreneur
p378
aVright
p379
aVplotaverse
p380
aVsupport
p381
aVhadfield
p382
aVjoseph
p383
aVeditor
p384
aVway
p385
aVjane
p386
aVwar
p387
aVhappy
p388
aVamateur
p389
aV26th
p390
aVfailure
p391
aVmelanie
p392
aVdead
p393
aVremoved
p394
aVinside
p395
aVdevices
p396
aVuntil
p397
aVproud
p398
aV47xxy
p399
aVup
p400
aVtesla
p401
aVmuscular
p402
aVeverest
p403
aVmaliciouscompliance
p404
aVtosi
p405
aVacclaimed
p406
aVelon
p407
aVcheck
p408
aVphysical
p409
aVno
p410
aVexcel
p411
aVactor
p412
aVny
p413
aVrole
p414
aVholding
p415
aVtest
p416
aVbrothers
p417
aVfootball
p418
aVutilities
p419
aVdiet
p420
aV15k
p421
aVdied
p422
aVjones
p423
aVboudoir
p424
aVtogether
p425
aVuncovered
p426
aVinvestigative
p427
aVanimator
p428
aVcoach
p429
aVmanaged
p430
aVrob
p431
aVglobal
p432
aVlaika
p433
aVroy
p434
aVrecode
p435
aVllc
p436
aVmilk
p437
aVsuicide
p438
aVmarko
p439
aVfather
p440
aVcrater
p441
aVcharge
p442
aVpraised
p443
aVveterans
p444
aVvegan
p445
aVtrutmann
p446
aVnooij
p447
aVcook
p448
aVmetoo
p449
aVdid
p450
aVbrother
p451
aVscience
p452
aVguy
p453
aVbabyface
p454
aVprevent
p455
aVspiritual
p456
aVporn
p457
aVcyber
p458
aVcost
p459
aVturboquack
p460
aVcurrent
p461
aVworldnews
p462
aVprincipal
p463
aVclerk
p464
aVwitch
p465
aVredskins
p466
aV8340a
p467
aVchange
p468
aVboy
p469
aVcanadian
p470
aVdorie
p471
aVfunded
p472
aVjori
p473
aVsuggestion
p474
aVlove
p475
aVextra
p476
aVforefront
p477
aVeverybody
p478
aVprove
p479
aVariel
p480
aVsports
p481
aVlive
p482
aVawcm
p483
aVfilms
p484
aVblack
p485
aVprep
p486
aVcommissioner
p487
aVsipher
p488
aVvagabonds
p489
aVbicchierai
p490
aVeffort
p491
aVgraphic
p492
aVlocal
p493
aVoriginally
p494
aVcat
p495
aVmetalcore
p496
aVseptum
p497
aVheart
p498
aVdedicated
p499
aVuruguay
p500
aVconfused
p501
aVsample
p502
aVcritic
p503
aVcouncil
p504
aVallowed
p505
aVswedish
p506
aVdiscussion
p507
aVdinner
p508
aVwrite
p509
aVnyc
p510
aVdeviated
p511
aVdesigner
p512
aVmay
p513
aVbirthday
p514
aVdesigned
p515
aVdrastic
p516
aVdata
p517
aVman
p518
aVnatural
p519
aVjohnson
p520
aVdevs
p521
aVswitch
p522
aVso
p523
aVjain
p524
aVtalk
p525
aVohanian
p526
aVforeclosure
p527
aVdesjardins
p528
aVepilepsy
p529
aVbrain
p530
aVcold
p531
aVstill
p532
aVsupplemented
p533
aVplatform
p534
aVoffers
p535
aVfright
p536
aVfarmer
p537
aVpolicy
p538
aVnorway
p539
aVnon
p540
aVfukuyama
p541
aVnation
p542
aVsubscribers
p543
aVnot
p544
aVson
p545
aVdiscuss
p546
aVdevelopments
p547
aVterm
p548
aVdrop
p549
aVcrypto
p550
aVel
p551
aVbadly
p552
aVed
p553
aVrichly
p554
aVfires
p555
aVex
p556
aVet
p557
aVgirl
p558
aVteams
p559
aVcanada
p560
aVliving
p561
aVspace
p562
aVprofit
p563
aVlooking
p564
aVpamela
p565
aVhacked
p566
aVinternet
p567
aVkender
p568
aVmonster
p569
aVmillion
p570
aVquite
p571
aVcalifornia
p572
aVcare
p573
aVtraining
p574
aVcycles
p575
aVwhere
p576
aVbritish
p577
aVmotion
p578
aVthing
p579
aVplace
p580
aVnonprofit
p581
aVthink
p582
aVgutman
p583
aVknudsen
p584
aVone
p585
aVvote
p586
aVimpossible
p587
aVsounds
p588
aVopen
p589
aVtomorrow
p590
aVengineer
p591
aViam
p592
aVlittle
p593
aVinfluencing
p594
aVfortnite
p595
aVwhite
p596
aVspeaking
p597
aVnutrition
p598
aVreleases
p599
aVseason
p600
aVreleased
p601
aVbutt
p602
aVholder
p603
aVthan
p604
aVinventor
p605
aV10
p606
aV13
p607
aV12
p608
aV18
p609
aVfuture
p610
aVaesthetic
p611
aVpre
p612
aVsam
p613
aVpro
p614
aVturned
p615
aVmedical
p616
aVcomedian
p617
aVberglund
p618
aVsells
p619
aVsaw
p620
aVanswering
p621
aVconsortium
p622
aVpotential
p623
aVtake
p624
aVpersonalized
p625
aVchannel
p626
aVpain
p627
aVtrack
p628
aVprice
p629
aVknew
p630
aVblackest
p631
aVdonation
p632
aVimportantly
p633
aVphil
p634
aVsale
p635
aVmanaging
p636
aVtrafficking
p637
aVprofessional
p638
aVsenior
p639
aVabraham
p640
aVmrb
p641
aVshow
p642
aVworkshops
p643
aVcheap
p644
aVtroy
p645
aVtherapist
p646
aVtitle
p647
aVstate
p648
aVonly
p649
aVlorenzo
p650
aVthompson
p651
aVduchenne
p652
aVget
p653
aVassistant
p654
aVmormon
p655
aVbastille
p656
aVroadster
p657
aVbestselling
p658
aVscientist
p659
aVdiscussing
p660
aVseat
p661
aVactively
p662
aVcollege
p663
aVrme
p664
aVdiver
p665
aVlonnie
p666
aVways
p667
aVbehind
p668
aVkilometer
p669
aVjobs
p670
aVcome
p671
aVmany
p672
aVtrader
p673
aVworkplace
p674
aVp2p
p675
aVcancer
p676
aVresentment
p677
aVtwin
p678
aVanti
p679
aVlearning
p680
aVpoll
p681
aVspecializing
p682
aVcombines
p683
aVlifes
p684
aVclassic
p685
aVmark
p686
aVmars
p687
aVsystems
p688
aVshopping
p689
aVsebastioan
p690
aVstandup
p691
aVodyssey
p692
aVthose
p693
aVdeveloping
p694
aVthese
p695
aVmount
p696
aVsingle
p697
aVeditorial
p698
aVinvestigating
p699
aVive
p700
aVcanon
p701
aVcoffee
p702
aVspogli
p703
aVtechnology
p704
aVeveryday
p705
aVdoctor
p706
aVmedia
p707
aVstruggling
p708
aVsterling
p709
aVbussiness
p710
aVoil
p711
aVdriver
p712
aVelina
p713
aVkubo
p714
aVrunning
p715
aVfolan
p716
aVfasting
p717
aVdaytona
p718
aVwithout
p719
aValfredo
p720
aVresearchers
p721
aVrenowned
p722
aVmoney
p723
aVactress
p724
aVangel
p725
aVps1
p726
aVtobi
p727
aVps4
p728
aVtim
p729
aVlets
p730
aVtreatment
p731
aVzunba
p732
aVgrip
p733
aVaround
p734
aVamy
p735
aVhuffpost
p736
aVamp
p737
aVrecipient
p738
aVpst
p739
aVchristina
p740
aVfibromyalgia
p741
aVintel
p742
aVkennedy
p743
aVconducts
p744
aVretailers
p745
aVtvs
p746
aVtarot
p747
aVcowboys
p748
aVdivine
p749
aVviral
p750
aVpassions
p751
aVgameofthrones
p752
aVlouisianas
p753
aVayling
p754
aVpower
p755
aVdisinformation
p756
aVsixth
p757
aVbroken
p758
aVinnocence
p759
aVthailand
p760
aVfrancis
p761
aVbiopharma
p762
aVfavorite
p763
aVside
p764
aVtumor
p765
aVcatholicism
p766
aVgregory
p767
aVor
p768
aVenthusist
p769
aVrollcage
p770
aVrising
p771
aVhomeless
p772
aVcate
p773
aVher
p774
aVhes
p775
aVthere
p776
aVracism
p777
aVracist
p778
aVlow
p779
aVlot
p780
aVenergy
p781
aVbillion
p782
aVbeginners
p783
aVpodcast
p784
aVbuying
p785
aVdittmar
p786
aVvideography
p787
aVstanford
p788
aVtaylor
p789
aVpolitico
p790
aVcbd
p791
aVai
p792
aVsales
p793
aVdeep
p794
aVgeneral
p795
aVsyrian
p796
aVnerd
p797
aVagain
p798
aVidiot
p799
aVstorage
p800
aVeffin
p801
aVastronaut
p802
aValwyine
p803
aVshaun
p804
aVhey
p805
aVgifts
p806
aVimportant
p807
aVbullets
p808
aVchris
p809
aVbuilding
p810
aVcalls
p811
aVwife
p812
aVtricks
p813
aVkilogram
p814
aVpeeke
p815
aVmass
p816
aVcarlin
p817
aVoverseas
p818
aVsongs
p819
aVstarting
p820
aVstrings
p821
aVsci
p822
aVchinese
p823
aVdollar
p824
aVfounded
p825
aViapf
p826
aVspacecraft
p827
aVcameron
p828
aVals
p829
aVemily
p830
aVty
p831
aVtv
p832
aVopportunities
p833
aVformer
p834
aVprogram
p835
aVtj
p836
aVfountain
p837
aVactivities
p838
aVwoman
p839
aVworse
p840
aVhorror
p841
aVsons
p842
aVfan
p843
aVfall
p844
aVsony
p845
aVdapper
p846
aVpbs
p847
aVjoonhyeok
p848
aVlist
p849
aVjoined
p850
aVwst
p851
aVsmall
p852
aVlisa
p853
aVamnesiac
p854
aVcookies
p855
aVpast
p856
aVgreenspan
p857
aVnbc
p858
aVdial
p859
aVabc
p860
aVanniversary
p861
aVissues
p862
aVscientists
p863
aVnurse
p864
aVracing
p865
aVpublic
p866
aVmovement
p867
aVtattoos
p868
aVfull
p869
aVchristian
p870
aVanswers
p871
aVhours
p872
aVranger
p873
aVnovember
p874
aViraq
p875
aVsmejkal
p876
aVexperience
p877
aVsupplements
p878
aVrichelle
p879
aVpublished
p880
aVcaravan
p881
aVscreens
p882
aVturnout
p883
aVfinally
p884
aVteen
p885
aVflat
p886
aVisrael
p887
aVleonard
p888
aVtested
p889
aVbroke
p890
aVknown
p891
aVkeeping
p892
aVdamien
p893
aVphillip
p894
aVder
p895
aVdel
p896
aVsent
p897
aVstrategies
p898
aVingredient
p899
aVspecialized
p900
aVhistory
p901
aVchildrens
p902
aVinformation
p903
aVbackpacking
p904
aVbrowne
p905
aVseoul
p906
aVentrepreneurship
p907
aVadventure
p908
aVcoming
p909
aVfi
p910
aVevaluations
p911
aVfl
p912
aVshort
p913
aVcrippling
p914
aVbroadcasting
p915
aVfundamental
p916
aVadrien
p917
aVdream
p918
aVphotoshop
p919
aVpaper
p920
aVthrough
p921
aVdeveloper
p922
aV25
p923
aV26
p924
aV20
p925
aV22
p926
aV23
p927
aV28
p928
aV29
p929
aVnewconomy
p930
aVgrade
p931
aVruining
p932
aVfounders
p933
aVsoccer
p934
aVmight
p935
aVnorthwest
p936
aVrobbie
p937
aVfully
p938
aVgriptape
p939
aVmicro
p940
aVfound
p941
aVmental
p942
aVhouse
p943
aVfish
p944
aVkatrina
p945
aVconnect
p946
aVoperation
p947
aVbeyond
p948
aVevent
p949
aVreally
p950
aVperry
p951
aValcohol
p952
aVpoachers
p953
aVrobert
p954
aVsince
p955
aVresearch
p956
aVhealth
p957
aVfriday
p958
aVnationally
p959
aVmembers
p960
aVput
p961
aVteach
p962
aVbeginning
p963
aVbenefits
p964
aVmajor
p965
aVfeel
p966
aVelder
p967
aVdone
p968
aVguest
p969
aVleading
p970
aVpaint
p971
aVstation
p972
aVpassed
p973
aVrates
p974
aVschor
p975
aVpains
p976
aVcthonic
p977
aVjamie
p978
aVinterviewed
p979
aVpart
p980
aVfocusing
p981
aVbelieve
p982
aVdouble
p983
aVyouth
p984
aVdani
p985
aVkjetil
p986
aVdefect
p987
aVcavelos
p988
aVbuilt
p989
aVself
p990
aVcave
p991
aValso
p992
aV36yo
p993
aVfinding
p994
aVdonor
p995
aVrisingcbd
p996
aVannihilation
p997
aVmacy
p998
aV76
p999
aVbrooklyn
p1000
aVplan
p1001
aVservices
p1002
aVchap
p1003
aVsalary
p1004
aVjayne
p1005
aVmobile
p1006
aVdystrophy
p1007
aVcharitable
p1008
aVphysics
p1009
aVmicrosoft
p1010
aVsector
p1011
aVsession
p1012
aVfind
p1013
aVgiant
p1014
aVnorthern
p1015
aVwriter
p1016
aVvagabrothers
p1017
aVflights
p1018
aVreiki
p1019
aVhit
p1020
aVpermission
p1021
aVreporters
p1022
aVbuho
p1023
aVduring
p1024
aVjeanne
p1025
aVgenelec
p1026
aVbanking
p1027
aVredefined
p1028
aVcommon
p1029
aVprevious
p1030
aVwrote
p1031
aVbars
p1032
aVart
p1033
aVcreator
p1034
aVintelligence
p1035
aVjade
p1036
aVstartup
p1037
aVsex
p1038
aVculture
p1039
aVsee
p1040
aVsea
p1041
aVclose
p1042
aVrecording
p1043
aVexpert
p1044
aVcurrently
p1045
aVplease
p1046
aVfans
p1047
aVwon
p1048
aVavailable
p1049
aVresponses
p1050
aVmissing
p1051
aVsold
p1052
aVsucceed
p1053
aVlast
p1054
aVoversee
p1055
aVforeign
p1056
aVbecame
p1057
aVscams
p1058
aVbots
p1059
aVwhole
p1060
aVjeff
p1061
aVsimple
p1062
aVrecycling
p1063
aVsteele
p1064
aVcommunity
p1065
aVvolunteered
p1066
aVthroughout
p1067
aVpt
p1068
aVcreate
p1069
aVpolitical
p1070
aVdue
p1071
aVcbbc
p1072
aVsecret
p1073
aVblaxburg
p1074
aVflight
p1075
aVdropout
p1076
aVgas
p1077
aVelse
p1078
aVanthony
p1079
aVdemand
p1080
aVinstructor
p1081
aVbill
p1082
aVanimater
p1083
aVheya
p1084
aVinstitute
p1085
aVelections
p1086
aVkhashoggi
p1087
aVrobin
p1088
aVloop
p1089
aVreal
p1090
aVkurtis
p1091
aVmycroft
p1092
aVfunny
p1093
aVshirt
p1094
aVelana
p1095
aVtextile
p1096
aVwindridge
p1097
aVsurvey
p1098
aVshah
p1099
aVconflict
p1100
aVdevelopment
p1101
aVused
p1102
aVyesterday
p1103
aVviewing
p1104
aVcouldve
p1105
aVmoving
p1106
aVdystopian
p1107
aVspent
p1108
aVperson
p1109
aVkelly
p1110
aVorganization
p1111
aVprevention
p1112
aVabilities
p1113
aVtelegram
p1114
aVreviewed
p1115
aVsima
p1116
aVworld
p1117
aValternative
p1118
aVdisappointed
p1119
aValternate
p1120
aVshortcut
p1121
aVsource
p1122
aVparents
p1123
aVballots
p1124
aVsurprised
p1125
aVaustralia
p1126
aVbig
p1127
aVcouple
p1128
aVbuhler
p1129
aVparamilitary
p1130
aVinfektion
p1131
aVmethods
p1132
aVfucking
p1133
aVback
p1134
aVtrends
p1135
aVourselves
p1136
aVpet
p1137
aVthanksgiving
p1138
aVconnecting
p1139
aVretro
p1140
aVinnovation
p1141
aVepic
p1142
aVbartyczak
p1143
aVeating
p1144
aVplota
p1145
aVuse
p1146
aValoft
p1147
aVsanta
p1148
aVfaith
p1149
aVmost
p1150
aVpodcaster
p1151
aVentrepreneurs
p1152
aVdeserves
p1153
aVrange
p1154
aVadrealm
p1155
aVcanvassing
p1156
aVrepair
p1157
aVscudamore
p1158
aVinto
p1159
aVretailer
p1160
aVquestion
p1161
aVlong
p1162
aVconover
p1163
aVimmigration
p1164
aVboys
p1165
aVlink
p1166
aVrussian
p1167
aVepisode
p1168
aVcollapses
p1169
aVposted
p1170
aVfdl
p1171
aVplanet
p1172
aVexploration
p1173
aVuk
p1174
aVchelsea
p1175
aVcalled
p1176
aVsometimes
p1177
aVconstant
p1178
aVparavonian
p1179
aVdoesn
p1180
aVengineering
p1181
aVdiverse
p1182
aVnightflyers
p1183
aVnick
p1184
aVproblems
p1185
aVhelping
p1186
aVevan
p1187
aVfisher
p1188
aVdickbutts
p1189
aVago
p1190
aVland
p1191
aVage
p1192
aVyoutube
p1193
aVmccausland
p1194
aVheath
p1195
aVnasa
p1196
aVmenace
p1197
aVhaving
p1198
aVessay
p1199
aVgo
p1200
aVgi
p1201
aVyoung
p1202
aVculinary
p1203
aVhelps
p1204
aVwomen
p1205
aVresources
p1206
aVsniper
p1207
aVbreathing
p1208
aVmixing
p1209
aVdrinking
p1210
aVentire
p1211
aVmagic
p1212
aVgender
p1213
aVmichael
p1214
aVryan
p1215
aVassignments
p1216
aVepstein
p1217
aVhavent
p1218
aVlicensed
p1219
aVvideo
p1220
aVplays
p1221
aVmultimedia
p1222
aVindian
p1223
aVcarbonaro
p1224
aVlee
p1225
aVexplore
p1226
aVfocused
p1227
aVothers
p1228
aVextreme
p1229
aVgreat
p1230
aV38
p1231
aVtalent
p1232
aVcern
p1233
aVpickle
p1234
aVproducts
p1235
aVpornstar
p1236
aVopinion
p1237
aVmaker
p1238
aVpatents
p1239
aVclaro
p1240
aVdeputy
p1241
aVduct
p1242
aVapp
p1243
aVcrazy
p1244
aVcloud
p1245
aVconfidence
p1246
aVodonnell
p1247
aVusa
p1248
aVblockchain
p1249
aVnext
p1250
aVfew
p1251
aVcamera
p1252
aVvehicle
p1253
aVjournalists
p1254
aVupcoming
p1255
aVsilith
p1256
aVmusician
p1257
aVtangerine
p1258
aVpayne
p1259
aVtrain
p1260
aVrecount
p1261
aVcharity
p1262
aVanimals
p1263
aVmidterm
p1264
aVgabriel
p1265
aVwhen
p1266
aVcontrol
p1267
aVdo
p1268
aVprocess
p1269
aVhigh
p1270
aVifmcp
p1271
aVeducational
p1272
aVunited
p1273
aVsyndrome
p1274
aVjails
p1275
aVbrian
p1276
aVreposting
p1277
aVcomedy
p1278
aVmeditated
p1279
aVstock
p1280
aVadministrator
p1281
aVblocks
p1282
aVaspiring
p1283
aVfarm
p1284
aVstop
p1285
aVact
p1286
aVnpr
p1287
aVrealized
p1288
aVmartins
p1289
aVbina
p1290
aVchief
p1291
aVroad
p1292
aVsecfootball
p1293
aVproducer
p1294
aVgeopolitics
p1295
aVsperm
p1296
aVincluding
p1297
aVjoanna
p1298
aVbunch
p1299
aVindustries
p1300
aVll
p1301
aVnostalgia
p1302
aVlt
p1303
aVwilling
p1304
aV2018
p1305
aVtwoxchromosomes
p1306
aVellick
p1307
aV2012
p1308
aVfreeman
p1309
aVfrontal
p1310
aVmaterial
p1311
aVfront
p1312
aVsuccessor
p1313
aVworlds
p1314
aVtrutv
p1315
aVuniversity
p1316
aVnfl
p1317
aVoligoastrocytoma
p1318
aVtracey
p1319
aVbeneath
p1320
aVserbia
p1321
aVsociety
p1322
aVfrequency
p1323
aVec2
p1324
aVfilmmaking
p1325
aVsexual
p1326
aVwitness
p1327
aVout
p1328
aVmatt
p1329
aVentertainment
p1330
aVannouncer
p1331
aVmallinson
p1332
aVmenio
p1333
aVmemes
p1334
aVannounced
p1335
aVfrank
p1336
aVseptoplasty
p1337
aVyork
p1338
aVrecipes
p1339
aVflorida
p1340
aVtimes
p1341
aVadrian
p1342
aVplastics
p1343
aVjesus
p1344
aVsuch
p1345
aVowner
p1346
aVreached
p1347
aVprank
p1348
aVfukked
p1349
aVmanagement
p1350
aVprivacy
p1351
aVsystem
p1352
aVrelations
p1353
aVfundriser
p1354
aVattack
p1355
aVpalestine
p1356
aVchemotherapy
p1357
aVinterests
p1358
aVcompleted
p1359
aVspiegel
p1360
aVcongenital
p1361
aVphotograph
p1362
aVbee
p1363
aVjulian
p1364
aVcohen
p1365
aVcryptocurrency
p1366
aVportrait
p1367
aVneed
p1368
aVborder
p1369
aVdallas
p1370
aVjurisdictions
p1371
aVsynesthetic
p1372
aVparks
p1373
aVwhich
p1374
aVtruck
p1375
aVkorean
p1376
aVlily
p1377
aVworldwide
p1378
aVunless
p1379
aVcombat
p1380
aVaws
p1381
aVvisa
p1382
aVwhy
p1383
aVgather
p1384
aVdisease
p1385
aVbredeson
p1386
aVbring
p1387
aVplanning
p1388
aVbedroom
p1389
aVsoldiers
p1390
aVasylum
p1391
aVstaff
p1392
aVq1
p1393
aVtrying
p1394
aVbased
p1395
aVtape
p1396
aVemployee
p1397
aVthousands
p1398
aVmortality
p1399
aVlobe
p1400
aVphotography
p1401
aVfallout
p1402
aVexchanges
p1403
aVcompute
p1404
aVwellness
p1405
aVcalling
p1406
aVstuff
p1407
aVshe
p1408
aVohio
p1409
aVfixed
p1410
aV11am
p1411
aVeurope
p1412
aVnational
p1413
aVimmigrant
p1414
aVcomputer
p1415
aVunearth
p1416
aVwire
p1417
aVcheaters
p1418
aVcomplementary
p1419
aVwritten
p1420
aVconverted
p1421
aVprogress
p1422
aVmilovanovi
p1423
aVpachelbels
p1424
aVjoe
p1425
aV2pm
p1426
aVjon
p1427
aVadmin
p1428
aVchallengers
p1429
aVtaking
p1430
aVtrumps
p1431
aVco
p1432
aVmigrant
p1433
aVrpg
p1434
aVcs
p1435
aVbasing
p1436
aVct
p1437
aVquit
p1438
aVvideos
p1439
aVtremendous
p1440
aVdiscrimination
p1441
aVahsan
p1442
aVtaste
p1443
aVslowly
p1444
aVwaste
p1445
aV3yrs
p1446
aVfellow
p1447
aVvolunteer
p1448
aVnovel
p1449
aVwill
p1450
aVcountry
p1451
aVcompetitiveoverwatch
p1452
aVtoothbrushes
p1453
aVva
p1454
aVve
p1455
aValmost
p1456
aVsite
p1457
aVhelped
p1458
aVvr
p1459
aVcoraline
p1460
aVradiation
p1461
aVspeaker
p1462
aVcastillo
p1463
aVoutbreak
p1464
aVterrorism
p1465
aVgets
p1466
aVpractitioner
p1467
aVreporting
p1468
aVeffect
p1469
aVphd
p1470
aVstudent
p1471
aVsisters
p1472
aVidentity
p1473
aVkeep
p1474
aVcorrespondent
p1475
aVcenter
p1476
aVwell
p1477
aVfighting
p1478
aVdressed
p1479
aVcreators
p1480
aVlatest
p1481
aVnewest
p1482
aVrocket
p1483
aVswords
p1484
aVexecutive
p1485
aVmasseffect
p1486
aVbooks
p1487
aVtch
p1488
aVprotecting
p1489
aVmezcal
p1490
aVhall
p1491
aVforbes
p1492
aVupvotes
p1493
aVprezzybox
p1494
aVgmu
p1495
aVdetails
p1496
aVcandid
p1497
aVgovernment
p1498
aVjamille
p1499
aVicij
p1500
aVhistoric
p1501
aVknow
p1502
aVintersection
p1503
aVlike
p1504
aVlost
p1505
aVsized
p1506
aVjournalist
p1507
aVmartin
p1508
aVbecome
p1509
aVworks
p1510
aVpage
p1511
aVvirginity
p1512
aVbecause
p1513
aValive
p1514
aVlangfitt
p1515
aVklinefelter
p1516
aVcleveland
p1517
aVhome
p1518
aVemployment
p1519
aVest
p1520
aVlead
p1521
aVsyfy
p1522
aVdoes
p1523
aVleader
p1524
aVnoise
p1525
aVhost
p1526
aVlockheed
p1527
aVrytes
p1528
aVgetting
p1529
aVfreedom
p1530
aVrecognized
p1531
aVpooja
p1532
aVown
p1533
aVletters
p1534
aVboggy
p1535
aVfunctional
p1536
aVchronic
p1537
aVweather
p1538
aVfemale
p1539
aVvampiric
p1540
aVhousing
p1541
aVmander
p1542
aVbuy
p1543
aValexa
p1544
aVchicagoland
p1545
aVsequel
p1546
aVbut
p1547
aVtechnician
p1548
aVhe
p1549
aVmade
p1550
aVtactics
p1551
aVplaces
p1552
aVwish
p1553
aVrecord
p1554
aVconvince
p1555
aVstories
p1556
aVsponsor
p1557
aVzellweger
p1558
aVdeaths
p1559
aVgilpin
p1560
aVlived
p1561
aVshooting
p1562
aVeric
p1563
aVdiplomat
p1564
aVmalachy
p1565
aVagriculture
p1566
aV43
p1567
aVother
p1568
aVspecial
p1569
aVcyborg
p1570
aVadam
p1571
aVhacker
p1572
aVjunk
p1573
aVstar
p1574
aVmonday
p1575
aVworker
p1576
aVstay
p1577
aVnintendo
p1578
aVstan
p1579
aVstylists
p1580
aVdolphins
p1581
aVusing
p1582
aVdickbutt
p1583
aVoral
p1584
aVbaker
p1585
aVcerebral
p1586
aVportion
p1587
atp1588
Rp1589
sS'binary'
p1590
I00
sS'lowercase'
p1591
I01
sS'stop_words'
p1592
NsS'tokenizer'
p1593
NsS'vocabulary_'
p1594
(dp1595
Vall
p1596
cnumpy.core.multiarray
scalar
p1597
(cnumpy
dtype
p1598
(S'i8'
p1599
I0
I1
tp1600
Rp1601
(I3
S'<'
p1602
NNNI-1
I-1
I0
tp1603
bS'\x01\x00\x00\x00\x00\x00\x00\x00'
p1604
tp1605
Rp1606
sVfounder
p1607
g1597
(g1601
S'\x1f\x00\x00\x00\x00\x00\x00\x00'
p1608
tp1609
Rp1610
sVto
p1611
g1597
(g1601
S'Q\x00\x00\x00\x00\x00\x00\x00'
p1612
tp1613
Rp1614
sViama
p1615
g1597
(g1601
S'+\x00\x00\x00\x00\x00\x00\x00'
p1616
tp1617
Rp1618
sVschool
p1619
g1597
(g1601
S'H\x00\x00\x00\x00\x00\x00\x00'
p1620
tp1621
Rp1622
sVnew
p1623
g1597
(g1601
S'9\x00\x00\x00\x00\x00\x00\x00'
p1624
tp1625
Rp1626
sVreporter
p1627
g1597
(g1601
S'G\x00\x00\x00\x00\x00\x00\x00'
p1628
tp1629
Rp1630
sVhere
p1631
g1597
(g1601
S"'\x00\x00\x00\x00\x00\x00\x00"
p1632
tp1633
Rp1634
sVstudio
p1635
g1597
(g1601
S'J\x00\x00\x00\x00\x00\x00\x00'
p1636
tp1637
Rp1638
sVmore
p1639
g1597
(g1601
S'6\x00\x00\x00\x00\x00\x00\x00'
p1640
tp1641
Rp1642
sVcompany
p1643
g1597
(g1601
S'\x16\x00\x00\x00\x00\x00\x00\x00'
p1644
tp1645
Rp1646
sVme
p1647
g1597
(g1601
S'4\x00\x00\x00\x00\x00\x00\x00'
p1648
tp1649
Rp1650
sVim
p1651
g1597
(g1601
S',\x00\x00\x00\x00\x00\x00\x00'
p1652
tp1653
Rp1654
sVmy
p1655
g1597
(g1601
S'7\x00\x00\x00\x00\x00\x00\x00'
p1656
tp1657
Rp1658
sVwant
p1659
g1597
(g1601
S'T\x00\x00\x00\x00\x00\x00\x00'
p1660
tp1661
Rp1662
sVhow
p1663
g1597
(g1601
S'*\x00\x00\x00\x00\x00\x00\x00'
p1664
tp1665
Rp1666
sVanswer
p1667
g1597
(g1601
S'\x06\x00\x00\x00\x00\x00\x00\x00'
p1668
tp1669
Rp1670
sVhelp
p1671
g1597
(g1601
S'&\x00\x00\x00\x00\x00\x00\x00'
p1672
tp1673
Rp1674
sVover
p1675
g1597
(g1601
S'A\x00\x00\x00\x00\x00\x00\x00'
p1676
tp1677
Rp1678
sVceo
p1679
g1597
(g1601
S'\x15\x00\x00\x00\x00\x00\x00\x00'
p1680
tp1681
Rp1682
sVwent
p1683
g1597
(g1601
S'W\x00\x00\x00\x00\x00\x00\x00'
p1684
tp1685
Rp1686
sVtaught
p1687
g1597
(g1601
S'K\x00\x00\x00\x00\x00\x00\x00'
p1688
tp1689
Rp1690
sVask
p1691
g1597
(g1601
S'\x0b\x00\x00\x00\x00\x00\x00\x00'
p1692
tp1693
Rp1694
sVthe
p1695
g1597
(g1601
S'N\x00\x00\x00\x00\x00\x00\x00'
p1696
tp1697
Rp1698
sVhis
p1699
g1597
(g1601
S')\x00\x00\x00\x00\x00\x00\x00'
p1700
tp1701
Rp1702
sVdr
p1703
g1597
(g1601
S'\x1b\x00\x00\x00\x00\x00\x00\x00'
p1704
tp1705
Rp1706
sVquestions
p1707
g1597
(g1601
S'D\x00\x00\x00\x00\x00\x00\x00'
p1708
tp1709
Rp1710
sVare
p1711
g1597
(g1601
S'\x08\x00\x00\x00\x00\x00\x00\x00'
p1712
tp1713
Rp1714
sVwe
p1715
g1597
(g1601
S'V\x00\x00\x00\x00\x00\x00\x00'
p1716
tp1717
Rp1718
sVrecently
p1719
g1597
(g1601
S'E\x00\x00\x00\x00\x00\x00\x00'
p1720
tp1721
Rp1722
sVwere
p1723
g1597
(g1601
S'X\x00\x00\x00\x00\x00\x00\x00'
p1724
tp1725
Rp1726
sVnews
p1727
g1597
(g1601
S':\x00\x00\x00\x00\x00\x00\x00'
p1728
tp1729
Rp1730
sVand
p1731
g1597
(g1601
S'\x05\x00\x00\x00\x00\x00\x00\x00'
p1732
tp1733
Rp1734
sVhad
p1735
g1597
(g1601
S'"\x00\x00\x00\x00\x00\x00\x00'
p1736
tp1737
Rp1738
sVxpost
p1739
g1597
(g1601
S'\\\x00\x00\x00\x00\x00\x00\x00'
p1740
tp1741
Rp1742
sVbeen
p1743
g1597
(g1601
S'\x10\x00\x00\x00\x00\x00\x00\x00'
p1744
tp1745
Rp1746
sVhas
p1747
g1597
(g1601
S'#\x00\x00\x00\x00\x00\x00\x00'
p1748
tp1749
Rp1750
sVis
p1751
g1597
(g1601
S'/\x00\x00\x00\x00\x00\x00\x00'
p1752
tp1753
Rp1754
sVit
p1755
g1597
(g1601
S'0\x00\x00\x00\x00\x00\x00\x00'
p1756
tp1757
Rp1758
sVin
p1759
g1597
(g1601
S'-\x00\x00\x00\x00\x00\x00\x00'
p1760
tp1761
Rp1762
sVjust
p1763
g1597
(g1601
S'2\x00\x00\x00\x00\x00\x00\x00'
p1764
tp1765
Rp1766
sVgame
p1767
g1597
(g1601
S'!\x00\x00\x00\x00\x00\x00\x00'
p1768
tp1769
Rp1770
sVattorney
p1771
g1597
(g1601
S'\r\x00\x00\x00\x00\x00\x00\x00'
p1772
tp1773
Rp1774
sVold
p1775
g1597
(g1601
S'=\x00\x00\x00\x00\x00\x00\x00'
p1776
tp1777
Rp1778
sVpeople
p1779
g1597
(g1601
S'B\x00\x00\x00\x00\x00\x00\x00'
p1780
tp1781
Rp1782
sVfor
p1783
g1597
(g1601
S'\x1e\x00\x00\x00\x00\x00\x00\x00'
p1784
tp1785
Rp1786
sVbe
p1787
g1597
(g1601
S'\x0f\x00\x00\x00\x00\x00\x00\x00'
p1788
tp1789
Rp1790
sVwho
p1791
g1597
(g1601
S'Y\x00\x00\x00\x00\x00\x00\x00'
p1792
tp1793
Rp1794
sVby
p1795
g1597
(g1601
S'\x13\x00\x00\x00\x00\x00\x00\x00'
p1796
tp1797
Rp1798
sVanything
p1799
g1597
(g1601
S'\x07\x00\x00\x00\x00\x00\x00\x00'
p1800
tp1801
Rp1802
sVmonths
p1803
g1597
(g1601
S'5\x00\x00\x00\x00\x00\x00\x00'
p1804
tp1805
Rp1806
sVwas
p1807
g1597
(g1601
S'U\x00\x00\x00\x00\x00\x00\x00'
p1808
tp1809
Rp1810
sVsome
p1811
g1597
(g1601
S'I\x00\x00\x00\x00\x00\x00\x00'
p1812
tp1813
Rp1814
sVtime
p1815
g1597
(g1601
S'P\x00\x00\x00\x00\x00\x00\x00'
p1816
tp1817
Rp1818
sVteam
p1819
g1597
(g1601
S'L\x00\x00\x00\x00\x00\x00\x00'
p1820
tp1821
Rp1822
sVinternational
p1823
g1597
(g1601
S'.\x00\x00\x00\x00\x00\x00\x00'
p1824
tp1825
Rp1826
sVyoutuber
p1827
g1597
(g1601
S'a\x00\x00\x00\x00\x00\x00\x00'
p1828
tp1829
Rp1830
sVfrom
p1831
g1597
(g1601
S' \x00\x00\x00\x00\x00\x00\x00'
p1832
tp1833
Rp1834
sVworking
p1835
g1597
(g1601
S'[\x00\x00\x00\x00\x00\x00\x00'
p1836
tp1837
Rp1838
sVtoday
p1839
g1597
(g1601
S'R\x00\x00\x00\x00\x00\x00\x00'
p1840
tp1841
Rp1842
sVthis
p1843
g1597
(g1601
S'O\x00\x00\x00\x00\x00\x00\x00'
p1844
tp1845
Rp1846
sVcan
p1847
g1597
(g1601
S'\x14\x00\x00\x00\x00\x00\x00\x00'
p1848
tp1849
Rp1850
sVyears
p1851
g1597
(g1601
S'^\x00\x00\x00\x00\x00\x00\x00'
p1852
tp1853
Rp1854
sVnow
p1855
g1597
(g1601
S';\x00\x00\x00\x00\x00\x00\x00'
p1856
tp1857
Rp1858
sVname
p1859
g1597
(g1601
S'8\x00\x00\x00\x00\x00\x00\x00'
p1860
tp1861
Rp1862
sVdoing
p1863
g1597
(g1601
S'\x1a\x00\x00\x00\x00\x00\x00\x00'
p1864
tp1865
Rp1866
sVyear
p1867
g1597
(g1601
S']\x00\x00\x00\x00\x00\x00\x00'
p1868
tp1869
Rp1870
sVday
p1871
g1597
(g1601
S'\x18\x00\x00\x00\x00\x00\x00\x00'
p1872
tp1873
Rp1874
sVfirst
p1875
g1597
(g1601
S'\x1d\x00\x00\x00\x00\x00\x00\x00'
p1876
tp1877
Rp1878
sVthat
p1879
g1597
(g1601
S'M\x00\x00\x00\x00\x00\x00\x00'
p1880
tp1881
Rp1882
sVhave
p1883
g1597
(g1601
S'$\x00\x00\x00\x00\x00\x00\x00'
p1884
tp1885
Rp1886
sVonline
p1887
g1597
(g1601
S'?\x00\x00\x00\x00\x00\x00\x00'
p1888
tp1889
Rp1890
sVartist
p1891
g1597
(g1601
S'\t\x00\x00\x00\x00\x00\x00\x00'
p1892
tp1893
Rp1894
sVreddit
p1895
g1597
(g1601
S'F\x00\x00\x00\x00\x00\x00\x00'
p1896
tp1897
Rp1898
sVus
p1899
g1597
(g1601
S'S\x00\x00\x00\x00\x00\x00\x00'
p1900
tp1901
Rp1902
sVjob
p1903
g1597
(g1601
S'1\x00\x00\x00\x00\x00\x00\x00'
p1904
tp1905
Rp1906
sVcrosspost
p1907
g1597
(g1601
S'\x17\x00\x00\x00\x00\x00\x00\x00'
p1908
tp1909
Rp1910
sVan
p1911
g1597
(g1601
S'\x04\x00\x00\x00\x00\x00\x00\x00'
p1912
tp1913
Rp1914
sVauthor
p1915
g1597
(g1601
S'\x0e\x00\x00\x00\x00\x00\x00\x00'
p1916
tp1917
Rp1918
sVlargest
p1919
g1597
(g1601
S'3\x00\x00\x00\x00\x00\x00\x00'
p1920
tp1921
Rp1922
sVdirector
p1923
g1597
(g1601
S'\x19\x00\x00\x00\x00\x00\x00\x00'
p1924
tp1925
Rp1926
sVbeing
p1927
g1597
(g1601
S'\x11\x00\x00\x00\x00\x00\x00\x00'
p1928
tp1929
Rp1930
sVama
p1931
g1597
(g1601
S'\x03\x00\x00\x00\x00\x00\x00\x00'
p1932
tp1933
Rp1934
sVon
p1935
g1597
(g1601
S'>\x00\x00\x00\x00\x00\x00\x00'
p1936
tp1937
Rp1938
sVabout
p1939
g1597
(g1601
S'\x00\x00\x00\x00\x00\x00\x00\x00'
p1940
tp1941
Rp1942
sVof
p1943
g1597
(g1601
S'<\x00\x00\x00\x00\x00\x00\x00'
p1944
tp1945
Rp1946
sVyour
p1947
g1597
(g1601
S'`\x00\x00\x00\x00\x00\x00\x00'
p1948
tp1949
Rp1950
sVhi
p1951
g1597
(g1601
S'(\x00\x00\x00\x00\x00\x00\x00'
p1952
tp1953
Rp1954
sVwith
p1955
g1597
(g1601
S'Z\x00\x00\x00\x00\x00\x00\x00'
p1956
tp1957
Rp1958
sVam
p1959
g1597
(g1601
S'\x02\x00\x00\x00\x00\x00\x00\x00'
p1960
tp1961
Rp1962
sVas
p1963
g1597
(g1601
S'\n\x00\x00\x00\x00\x00\x00\x00'
p1964
tp1965
Rp1966
sVat
p1967
g1597
(g1601
S'\x0c\x00\x00\x00\x00\x00\x00\x00'
p1968
tp1969
Rp1970
sVour
p1971
g1597
(g1601
S'@\x00\x00\x00\x00\x00\x00\x00'
p1972
tp1973
Rp1974
sVpolitics
p1975
g1597
(g1601
S'C\x00\x00\x00\x00\x00\x00\x00'
p1976
tp1977
Rp1978
sVfilm
p1979
g1597
(g1601
S'\x1c\x00\x00\x00\x00\x00\x00\x00'
p1980
tp1981
Rp1982
sVbook
p1983
g1597
(g1601
S'\x12\x00\x00\x00\x00\x00\x00\x00'
p1984
tp1985
Rp1986
sVyou
p1987
g1597
(g1601
S'_\x00\x00\x00\x00\x00\x00\x00'
p1988
tp1989
Rp1990
sVhello
p1991
g1597
(g1601
S'%\x00\x00\x00\x00\x00\x00\x00'
p1992
tp1993
Rp1994
ssS'_sklearn_version'
p1995
S'0.18.1'
p1996
sS'dtype'
p1997
cnumpy
int64
p1998
sS'input'
p1999
Vcontent
p2000
sS'_tfidf'
p2001
g0
(csklearn.feature_extraction.text
TfidfTransformer
p2002
g2
Ntp2003
Rp2004
(dp2005
S'smooth_idf'
p2006
I01
sg1995
g1996
sS'_idf_diag'
p2007
g0
(cscipy.sparse.csr
csr_matrix
p2008
g2
Ntp2009
Rp2010
(dp2011
S'indices'
p2012
cnumpy.core.multiarray
_reconstruct
p2013
(cnumpy
ndarray
p2014
(I0
tp2015
S'b'
p2016
tp2017
Rp2018
(I1
(I98
tp2019
g1598
(S'i4'
p2020
I0
I1
tp2021
Rp2022
(I3
S'<'
p2023
NNNI-1
I-1
I0
tp2024
bI00
S'\x00\x00\x00\x00\x01\x00\x00\x00\x02\x00\x00\x00\x03\x00\x00\x00\x04\x00\x00\x00\x05\x00\x00\x00\x06\x00\x00\x00\x07\x00\x00\x00\x08\x00\x00\x00\t\x00\x00\x00\n\x00\x00\x00\x0b\x00\x00\x00\x0c\x00\x00\x00\r\x00\x00\x00\x0e\x00\x00\x00\x0f\x00\x00\x00\x10\x00\x00\x00\x11\x00\x00\x00\x12\x00\x00\x00\x13\x00\x00\x00\x14\x00\x00\x00\x15\x00\x00\x00\x16\x00\x00\x00\x17\x00\x00\x00\x18\x00\x00\x00\x19\x00\x00\x00\x1a\x00\x00\x00\x1b\x00\x00\x00\x1c\x00\x00\x00\x1d\x00\x00\x00\x1e\x00\x00\x00\x1f\x00\x00\x00 \x00\x00\x00!\x00\x00\x00"\x00\x00\x00#\x00\x00\x00$\x00\x00\x00%\x00\x00\x00&\x00\x00\x00\'\x00\x00\x00(\x00\x00\x00)\x00\x00\x00*\x00\x00\x00+\x00\x00\x00,\x00\x00\x00-\x00\x00\x00.\x00\x00\x00/\x00\x00\x000\x00\x00\x001\x00\x00\x002\x00\x00\x003\x00\x00\x004\x00\x00\x005\x00\x00\x006\x00\x00\x007\x00\x00\x008\x00\x00\x009\x00\x00\x00:\x00\x00\x00;\x00\x00\x00<\x00\x00\x00=\x00\x00\x00>\x00\x00\x00?\x00\x00\x00@\x00\x00\x00A\x00\x00\x00B\x00\x00\x00C\x00\x00\x00D\x00\x00\x00E\x00\x00\x00F\x00\x00\x00G\x00\x00\x00H\x00\x00\x00I\x00\x00\x00J\x00\x00\x00K\x00\x00\x00L\x00\x00\x00M\x00\x00\x00N\x00\x00\x00O\x00\x00\x00P\x00\x00\x00Q\x00\x00\x00R\x00\x00\x00S\x00\x00\x00T\x00\x00\x00U\x00\x00\x00V\x00\x00\x00W\x00\x00\x00X\x00\x00\x00Y\x00\x00\x00Z\x00\x00\x00[\x00\x00\x00\\\x00\x00\x00]\x00\x00\x00^\x00\x00\x00_\x00\x00\x00`\x00\x00\x00a\x00\x00\x00'
p2025
tp2026
bsS'indptr'
p2027
g2013
(g2014
(I0
tp2028
g2016
tp2029
Rp2030
(I1
(I99
tp2031
g2022
I00
S'\x00\x00\x00\x00\x01\x00\x00\x00\x02\x00\x00\x00\x03\x00\x00\x00\x04\x00\x00\x00\x05\x00\x00\x00\x06\x00\x00\x00\x07\x00\x00\x00\x08\x00\x00\x00\t\x00\x00\x00\n\x00\x00\x00\x0b\x00\x00\x00\x0c\x00\x00\x00\r\x00\x00\x00\x0e\x00\x00\x00\x0f\x00\x00\x00\x10\x00\x00\x00\x11\x00\x00\x00\x12\x00\x00\x00\x13\x00\x00\x00\x14\x00\x00\x00\x15\x00\x00\x00\x16\x00\x00\x00\x17\x00\x00\x00\x18\x00\x00\x00\x19\x00\x00\x00\x1a\x00\x00\x00\x1b\x00\x00\x00\x1c\x00\x00\x00\x1d\x00\x00\x00\x1e\x00\x00\x00\x1f\x00\x00\x00 \x00\x00\x00!\x00\x00\x00"\x00\x00\x00#\x00\x00\x00$\x00\x00\x00%\x00\x00\x00&\x00\x00\x00\'\x00\x00\x00(\x00\x00\x00)\x00\x00\x00*\x00\x00\x00+\x00\x00\x00,\x00\x00\x00-\x00\x00\x00.\x00\x00\x00/\x00\x00\x000\x00\x00\x001\x00\x00\x002\x00\x00\x003\x00\x00\x004\x00\x00\x005\x00\x00\x006\x00\x00\x007\x00\x00\x008\x00\x00\x009\x00\x00\x00:\x00\x00\x00;\x00\x00\x00<\x00\x00\x00=\x00\x00\x00>\x00\x00\x00?\x00\x00\x00@\x00\x00\x00A\x00\x00\x00B\x00\x00\x00C\x00\x00\x00D\x00\x00\x00E\x00\x00\x00F\x00\x00\x00G\x00\x00\x00H\x00\x00\x00I\x00\x00\x00J\x00\x00\x00K\x00\x00\x00L\x00\x00\x00M\x00\x00\x00N\x00\x00\x00O\x00\x00\x00P\x00\x00\x00Q\x00\x00\x00R\x00\x00\x00S\x00\x00\x00T\x00\x00\x00U\x00\x00\x00V\x00\x00\x00W\x00\x00\x00X\x00\x00\x00Y\x00\x00\x00Z\x00\x00\x00[\x00\x00\x00\\\x00\x00\x00]\x00\x00\x00^\x00\x00\x00_\x00\x00\x00`\x00\x00\x00a\x00\x00\x00b\x00\x00\x00'
p2032
tp2033
bsS'maxprint'
p2034
I50
sS'_shape'
p2035
(I98
I98
tp2036
sS'data'
p2037
g2013
(g2014
(I0
tp2038
g2016
tp2039
Rp2040
(I1
(I98
tp2041
g1598
(S'f8'
p2042
I0
I1
tp2043
Rp2044
(I3
S'<'
p2045
NNNI-1
I-1
I0
tp2046
bI00
S'\x12\xd5\x9b/j|\x08@\xfb\x9d\xc7\xd0\x7f\xbd\r@\x88\x81z\x118\xf7\x01@\x9e\xe1\\\xf3\x8cX\xfc?\x84[\xd1\x1b\x11\xea\x07@\x82\xca\xcf2\x0b\xdd\xfb?L+y\xb6/\xa3\x10@\xbc\x02(i\xe5\x94\x01@o\xcc\xb1\xef\x07\x1a\t@<\x16CH\x88\xa4\x11@W" 0f\xab\x0f@V\x12\x0b3\xe0U\x01@\xb2\xa5\xcd\xe9\xcb\xc4\t@\xd0$E\xf5aB\x12@W" 0f\xab\x0f@<\x16CH\x88\xa4\x11@L+y\xb6/\xa3\x10@\xd0$E\xf5aB\x12@<\x16CH\x88\xa4\x11@\xd0$E\xf5aB\x12@\xd0$E\xf5aB\x12@\xd0$E\xf5aB\x12@\x18\xd71\xd4\xcb\x1b\x11@v\xa6\x9a\xe1\x13L\x0b@\xd0$E\xf5aB\x12@L+y\xb6/\xa3\x10@W" 0f\xab\x0f@<\x16CH\x88\xa4\x11@<\x16CH\x88\xa4\x11@\x18\xd71\xd4\xcb\x1b\x11@\x95\xe7l\xacvW\x05@F\x02\xf5\x15L7\x10@o\xcc\xb1\xef\x07\x1a\t@L+y\xb6/\xa3\x10@<\x16CH\x88\xa4\x11@\x18\xd71\xd4\xcb\x1b\x11@\x83\x11R\xae30\r@\xd0$E\xf5aB\x12@\xd0$E\xf5aB\x12@)\xda\xa4%\xde/\x0c@\x83\x11R\xae30\r@\xd0$E\xf5aB\x12@&\xbb\xcb*3\xf9\x0e@\xf1\xaa/S\x1b\x7f\n@\xb2\xa5\xcd\xe9\xcb\xc4\t@l)\xd9\x15&\xb5\x01@\xd0$E\xf5aB\x12@\xd5>\xaf\xfc\xb4\xc9\x08@W" 0f\xab\x0f@\xd0$E\xf5aB\x12@F\x02\xf5\x15L7\x10@\x18\xd71\xd4\xcb\x1b\x11@6\x17\x0f*;9\x04@\xd0$E\xf5aB\x12@\xd0$E\xf5aB\x12@\xfa\x17\xdc!\x83\xc0\x05@<\x16CH\x88\xa4\x11@\x18\xd71\xd4\xcb\x1b\x11@\xd0$E\xf5aB\x12@&\xbb\xcb*3\xf9\x0e@~\x89\x1db\xf24\x00@L+y\xb6/\xa3\x10@\xacK\xe6eM\xa4\x06@<\x16CH\x88\xa4\x11@<\x16CH\x88\xa4\x11@\xd0$E\xf5aB\x12@<\x16CH\x88\xa4\x11@\xd0$E\xf5aB\x12@Q\xcdm\xbcEU\x0e@\xd0$E\xf5aB\x12@\x18\xd71\xd4\xcb\x1b\x11@<\x16CH\x88\xa4\x11@\xd0$E\xf5aB\x12@\xd0$E\xf5aB\x12@<\x16CH\x88\xa4\x11@\xd0$E\xf5aB\x12@F\x02\xf5\x15L7\x10@\x84[\xd1\x1b\x11\xea\x07@\xb8\xbfG\xcb\xe5\xd7\xfc?\xd0$E\xf5aB\x12@<\x16CH\x88\xa4\x11@\xb8\x06w\xc0$u\x01@F\x02\xf5\x15L7\x10@H.\x0e\x9f{a\x07@\xd0$E\xf5aB\x12@L+y\xb6/\xa3\x10@\x7f\x0f\t\x11\xef1\x08@\xd0$E\xf5aB\x12@L+y\xb6/\xa3\x10@\xf1\xaa/S\x1b\x7f\n@\x12\xd5\x9b/j|\x08@\xd0$E\xf5aB\x12@\xd0$E\xf5aB\x12@\xfb\x9d\xc7\xd0\x7f\xbd\r@<\x16CH\x88\xa4\x11@\xfb\x9d\xc7\xd0\x7f\xbd\r@W" 0f\xab\x0f@\xd0$E\xf5aB\x12@'
p2047
tp2048
bsbsS'use_idf'
p2049
I01
sS'sublinear_tf'
p2050
I00
sS'norm'
p2051
Vl2
p2052
sbsS'strip_accents'
p2053
Nsb.